target datalayout = "e-m:e-p270:32:32-p271:32:32-p272:64:64-i64:64-i128:128-f80:128-n8:16:32:64-S128"
target triple = "x86_64-pc-linux-gnu"

%struct._xmlNode = type { ptr, i32, ptr, ptr, ptr, ptr, ptr, ptr, ptr, ptr, ptr, ptr, ptr, ptr, i16, i16 }
%struct._xmlNs = type { ptr, i32, ptr, ptr, ptr, ptr }
%struct.dom_html5_serialize_context = type { ptr, ptr, ptr }

@.str.18 = private unnamed_addr constant [29 x i8] c"http://www.w3.org/1999/xhtml\00", align 1
@.str.51 = private unnamed_addr constant [2 x i8] c":\00", align 1
@.str.52 = private unnamed_addr constant [35 x i8] c"http://www.w3.org/1998/Math/MathML\00", align 1
@.str.53 = private unnamed_addr constant [27 x i8] c"http://www.w3.org/2000/svg\00", align 1

; Function Attrs: nounwind uwtable
define internal zeroext i1 @dom_is_ns(ptr noundef %0, ptr noundef %1) #0 {
  %3 = alloca ptr, align 8
  %4 = alloca ptr, align 8
  store ptr %0, ptr %3, align 8
  store ptr %1, ptr %4, align 8
  %5 = load ptr, ptr %3, align 8
  %6 = getelementptr inbounds %struct._xmlNode, ptr %5, i32 0, i32 9
  %7 = load ptr, ptr %6, align 8
  %8 = icmp ne ptr %7, null
  br i1 %8, label %9, label %18

9:                                                ; preds = %2
  %10 = load ptr, ptr %3, align 8
  %11 = getelementptr inbounds %struct._xmlNode, ptr %10, i32 0, i32 9
  %12 = load ptr, ptr %11, align 8
  %13 = getelementptr inbounds %struct._xmlNs, ptr %12, i32 0, i32 2
  %14 = load ptr, ptr %13, align 8
  %15 = load ptr, ptr %4, align 8
  %16 = call i32 @strcmp(ptr noundef %14, ptr noundef %15) #3
  %17 = icmp eq i32 %16, 0
  br label %18

18:                                               ; preds = %9, %2
  %19 = phi i1 [ false, %2 ], [ %17, %9 ]
  ret i1 %19
}

; Function Attrs: nounwind uwtable
define internal zeroext i1 @dom_is_html_ns(ptr noundef %0) #0 {
  %2 = alloca ptr, align 8
  store ptr %0, ptr %2, align 8
  %3 = load ptr, ptr %2, align 8
  %4 = getelementptr inbounds %struct._xmlNode, ptr %3, i32 0, i32 9
  %5 = load ptr, ptr %4, align 8
  %6 = icmp eq ptr %5, null
  br i1 %6, label %10, label %7

7:                                                ; preds = %1
  %8 = load ptr, ptr %2, align 8
  %9 = call zeroext i1 @dom_is_ns(ptr noundef %8, ptr noundef @.str.18)
  br label %10

10:                                               ; preds = %7, %1
  %11 = phi i1 [ true, %1 ], [ %9, %7 ]
  ret i1 %11
}

; Function Attrs: nounwind uwtable
define internal i32 @dom_html5_serialize_element_tag_name(ptr noundef %0, ptr noundef %1) #0 {
  %3 = alloca i32, align 4
  %4 = alloca ptr, align 8
  %5 = alloca ptr, align 8
  store ptr %0, ptr %4, align 8
  store ptr %1, ptr %5, align 8
  %6 = load ptr, ptr %5, align 8
  %7 = getelementptr inbounds %struct._xmlNode, ptr %6, i32 0, i32 9
  %8 = load ptr, ptr %7, align 8
  %9 = icmp ne ptr %8, null
  br i1 %9, label %10, label %66

10:                                               ; preds = %2
  %11 = load ptr, ptr %5, align 8
  %12 = getelementptr inbounds %struct._xmlNode, ptr %11, i32 0, i32 9
  %13 = load ptr, ptr %12, align 8
  %14 = getelementptr inbounds %struct._xmlNs, ptr %13, i32 0, i32 3
  %15 = load ptr, ptr %14, align 8
  %16 = icmp ne ptr %15, null
  br i1 %16, label %17, label %66

17:                                               ; preds = %10
  %18 = load ptr, ptr %5, align 8
  %19 = call zeroext i1 @dom_is_html_ns(ptr noundef %18)
  br i1 %19, label %66, label %20

20:                                               ; preds = %17
  %21 = load ptr, ptr %5, align 8
  %22 = call zeroext i1 @dom_is_ns(ptr noundef %21, ptr noundef @.str.52)
  br i1 %22, label %66, label %23

23:                                               ; preds = %20
  %24 = load ptr, ptr %5, align 8
  %25 = call zeroext i1 @dom_is_ns(ptr noundef %24, ptr noundef @.str.53)
  br i1 %25, label %66, label %26

26:                                               ; preds = %23
  br label %27

27:                                               ; preds = %26
  %28 = load ptr, ptr %4, align 8
  %29 = getelementptr inbounds %struct.dom_html5_serialize_context, ptr %28, i32 0, i32 0
  %30 = load ptr, ptr %29, align 8
  %31 = load ptr, ptr %4, align 8
  %32 = getelementptr inbounds %struct.dom_html5_serialize_context, ptr %31, i32 0, i32 2
  %33 = load ptr, ptr %32, align 8
  %34 = load ptr, ptr %5, align 8
  %35 = getelementptr inbounds %struct._xmlNode, ptr %34, i32 0, i32 9
  %36 = load ptr, ptr %35, align 8
  %37 = getelementptr inbounds %struct._xmlNs, ptr %36, i32 0, i32 3
  %38 = load ptr, ptr %37, align 8
  %39 = call i32 %30(ptr noundef %33, ptr noundef %38)
  %40 = icmp ne i32 %39, 0
  %41 = xor i1 %40, true
  %42 = xor i1 %41, true
  %43 = zext i1 %42 to i32
  %44 = sext i32 %43 to i64
  %45 = icmp ne i64 %44, 0
  br i1 %45, label %46, label %47

46:                                               ; preds = %27
  store i32 -1, ptr %3, align 4
  br label %77

47:                                               ; preds = %27
  br label %48

48:                                               ; preds = %47
  br label %49

49:                                               ; preds = %48
  %50 = load ptr, ptr %4, align 8
  %51 = getelementptr inbounds %struct.dom_html5_serialize_context, ptr %50, i32 0, i32 1
  %52 = load ptr, ptr %51, align 8
  %53 = load ptr, ptr %4, align 8
  %54 = getelementptr inbounds %struct.dom_html5_serialize_context, ptr %53, i32 0, i32 2
  %55 = load ptr, ptr %54, align 8
  %56 = call i32 %52(ptr noundef %55, ptr noundef @.str.51, i64 noundef 1)
  %57 = icmp ne i32 %56, 0
  %58 = xor i1 %57, true
  %59 = xor i1 %58, true
  %60 = zext i1 %59 to i32
  %61 = sext i32 %60 to i64
  %62 = icmp ne i64 %61, 0
  br i1 %62, label %63, label %64

63:                                               ; preds = %49
  store i32 -1, ptr %3, align 4
  br label %77

64:                                               ; preds = %49
  br label %65

65:                                               ; preds = %64
  br label %66

66:                                               ; preds = %65, %23, %20, %17, %10, %2
  %67 = load ptr, ptr %4, align 8
  %68 = getelementptr inbounds %struct.dom_html5_serialize_context, ptr %67, i32 0, i32 0
  %69 = load ptr, ptr %68, align 8
  %70 = load ptr, ptr %4, align 8
  %71 = getelementptr inbounds %struct.dom_html5_serialize_context, ptr %70, i32 0, i32 2
  %72 = load ptr, ptr %71, align 8
  %73 = load ptr, ptr %5, align 8
  %74 = getelementptr inbounds %struct._xmlNode, ptr %73, i32 0, i32 2
  %75 = load ptr, ptr %74, align 8
  %76 = call i32 %69(ptr noundef %72, ptr noundef %75)
  store i32 %76, ptr %3, align 4
  br label %77

77:                                               ; preds = %66, %63, %46
  %78 = load i32, ptr %3, align 4
  ret i32 %78
}