; Function Attrs: nounwind uwtable
define internal fastcc i32 @dom_html5_serialize_element_tag_name(ptr nocapture noundef readonly %0, ptr nocapture noundef readonly %1) unnamed_addr #0 {
  %3 = getelementptr inbounds i8, ptr %1, i64 72
  %4 = load ptr, ptr %3, align 8
  %.not = icmp eq ptr %4, null
  br i1 %.not, label %26, label %5

5:                                                ; preds = %2
  %6 = getelementptr inbounds i8, ptr %4, i64 24
  %7 = load ptr, ptr %6, align 8
  %.not14 = icmp eq ptr %7, null
  br i1 %.not14, label %26, label %dom_is_html_ns.exit

dom_is_html_ns.exit:                              ; preds = %5
  %8 = getelementptr inbounds i8, ptr %4, i64 16
  %9 = load ptr, ptr %8, align 8
  %10 = tail call i32 @strcmp(ptr noundef nonnull dereferenceable(1) %9, ptr noundef nonnull dereferenceable(29) @.str.18) #5
  %11 = icmp eq i32 %10, 0
  br i1 %11, label %26, label %dom_is_ns.exit

dom_is_ns.exit:                                   ; preds = %dom_is_html_ns.exit
  %12 = tail call i32 @strcmp(ptr noundef nonnull dereferenceable(1) %9, ptr noundef nonnull dereferenceable(35) @.str.52) #5
  %13 = icmp eq i32 %12, 0
  br i1 %13, label %26, label %dom_is_ns.exit20

dom_is_ns.exit20:                                 ; preds = %dom_is_ns.exit
  %14 = tail call i32 @strcmp(ptr noundef nonnull dereferenceable(1) %9, ptr noundef nonnull dereferenceable(27) @.str.53) #5
  %15 = icmp eq i32 %14, 0
  br i1 %15, label %26, label %16

16:                                               ; preds = %dom_is_ns.exit20
  %17 = load ptr, ptr %0, align 8
  %18 = getelementptr inbounds i8, ptr %0, i64 16
  %19 = load ptr, ptr %18, align 8
  %20 = tail call i32 %17(ptr noundef %19, ptr noundef nonnull %7) #4
  %.not15 = icmp eq i32 %20, 0
  br i1 %.not15, label %21, label %33

21:                                               ; preds = %16
  %22 = getelementptr inbounds i8, ptr %0, i64 8
  %23 = load ptr, ptr %22, align 8
  %24 = load ptr, ptr %18, align 8
  %25 = tail call i32 %23(ptr noundef %24, ptr noundef nonnull @.str.51, i64 noundef 1) #4
  %.not16 = icmp eq i32 %25, 0
  br i1 %.not16, label %26, label %33

26:                                               ; preds = %21, %dom_is_ns.exit20, %dom_is_ns.exit, %dom_is_html_ns.exit, %5, %2
  %27 = load ptr, ptr %0, align 8
  %28 = getelementptr inbounds i8, ptr %0, i64 16
  %29 = load ptr, ptr %28, align 8
  %30 = getelementptr inbounds i8, ptr %1, i64 16
  %31 = load ptr, ptr %30, align 8
  %32 = tail call i32 %27(ptr noundef %29, ptr noundef %31) #4
  br label %33

33:                                               ; preds = %21, %16, %26
  %.0 = phi i32 [ %32, %26 ], [ -1, %16 ], [ -1, %21 ]
  ret i32 %.0
}